; Function Attrs: nounwind uwtable
define ptr @l_Lean_Meta_Grind_Arith_Cutsat_DiseqCnstr_applySubsts___lambda__1___boxed(ptr noundef %0, ptr noundef %1, ptr noundef %2, ptr noundef %3, ptr noundef %4, ptr noundef %5, ptr noundef %6, ptr noundef %7, ptr noundef %8, ptr noundef %9, ptr noundef %10, ptr noundef %11, ptr noundef %12, ptr noundef %13) local_unnamed_addr #1 {
  tail call void @lean_inc_heartbeat() #7
  %15 = tail call noalias ptr @mi_malloc_small(i64 noundef 32) #7
  %16 = icmp eq ptr %15, null
  br i1 %16, label %17, label %lean_alloc_ctor.exit.i

17:                                               ; preds = %14
  tail call void @lean_internal_panic_out_of_memory() #8
  unreachable

lean_alloc_ctor.exit.i:                           ; preds = %14
  %18 = getelementptr inbounds nuw i8, ptr %15, i64 4
  store i32 1, ptr %15, align 4, !tbaa !4
  store i32 100859936, ptr %18, align 4
  %19 = getelementptr inbounds nuw i8, ptr %15, i64 8
  store ptr %0, ptr %19, align 8, !tbaa !9
  %20 = getelementptr inbounds nuw i8, ptr %15, i64 16
  store ptr %1, ptr %20, align 8, !tbaa !9
  %21 = getelementptr inbounds nuw i8, ptr %15, i64 24
  store ptr %2, ptr %21, align 8, !tbaa !9
  tail call void @lean_inc_heartbeat() #7
  %22 = tail call noalias ptr @mi_malloc_small(i64 noundef 24) #7
  %23 = icmp eq ptr %22, null
  br i1 %23, label %24, label %l_Lean_Meta_Grind_Arith_Cutsat_DiseqCnstr_applySubsts___lambda__1.exit

24:                                               ; preds = %lean_alloc_ctor.exit.i
  tail call void @lean_internal_panic_out_of_memory() #8
  unreachable

l_Lean_Meta_Grind_Arith_Cutsat_DiseqCnstr_applySubsts___lambda__1.exit: ; preds = %lean_alloc_ctor.exit.i
  %25 = getelementptr inbounds nuw i8, ptr %22, i64 4
  store i32 1, ptr %22, align 4, !tbaa !4
  store i32 131096, ptr %25, align 4
  %26 = getelementptr inbounds nuw i8, ptr %22, i64 8
  store ptr %3, ptr %26, align 8, !tbaa !9
  %27 = getelementptr inbounds nuw i8, ptr %22, i64 16
  store ptr %15, ptr %27, align 8, !tbaa !9
  %28 = tail call ptr @l_Lean_Meta_Grind_Arith_Cutsat_DiseqCnstr_applySubsts(ptr noundef nonnull %22, ptr noundef %5, ptr noundef %6, ptr noundef %7, ptr noundef %8, ptr noundef %9, ptr noundef %10, ptr noundef %11, ptr noundef %12, ptr noundef %13) #9
  %29 = ptrtoint ptr %12 to i64
  %30 = and i64 %29, 1
  %.not = icmp eq i64 %30, 0
  br i1 %.not, label %31, label %lean_dec.exit29

31:                                               ; preds = %l_Lean_Meta_Grind_Arith_Cutsat_DiseqCnstr_applySubsts___lambda__1.exit
  %32 = load i32, ptr %12, align 4, !tbaa !4
  %33 = icmp sgt i32 %32, 1
  br i1 %33, label %34, label %36, !prof !11

34:                                               ; preds = %31
  %35 = add nsw i32 %32, -1
  store i32 %35, ptr %12, align 4, !tbaa !4
  br label %lean_dec.exit29

36:                                               ; preds = %31
  %.not.i = icmp eq i32 %32, 0
  br i1 %.not.i, label %lean_dec.exit29, label %37

37:                                               ; preds = %36
  tail call void @lean_dec_ref_cold(ptr noundef nonnull %12) #7
  br label %lean_dec.exit29

lean_dec.exit29:                                  ; preds = %37, %36, %34, %l_Lean_Meta_Grind_Arith_Cutsat_DiseqCnstr_applySubsts___lambda__1.exit
  %38 = ptrtoint ptr %10 to i64
  %39 = and i64 %38, 1
  %.not44 = icmp eq i64 %39, 0
  br i1 %.not44, label %40, label %lean_dec.exit28

40:                                               ; preds = %lean_dec.exit29
  %41 = load i32, ptr %10, align 4, !tbaa !4
  %42 = icmp sgt i32 %41, 1
  br i1 %42, label %43, label %45, !prof !11

43:                                               ; preds = %40
  %44 = add nsw i32 %41, -1
  store i32 %44, ptr %10, align 4, !tbaa !4
  br label %lean_dec.exit28

45:                                               ; preds = %40
  %.not.i30 = icmp eq i32 %41, 0
  br i1 %.not.i30, label %lean_dec.exit28, label %46

46:                                               ; preds = %45
  tail call void @lean_dec_ref_cold(ptr noundef nonnull %10) #7
  br label %lean_dec.exit28

lean_dec.exit28:                                  ; preds = %46, %45, %43, %lean_dec.exit29
  %47 = ptrtoint ptr %9 to i64
  %48 = and i64 %47, 1
  %.not45 = icmp eq i64 %48, 0
  br i1 %.not45, label %49, label %lean_dec.exit27

49:                                               ; preds = %lean_dec.exit28
  %50 = load i32, ptr %9, align 4, !tbaa !4
  %51 = icmp sgt i32 %50, 1
  br i1 %51, label %52, label %54, !prof !11

52:                                               ; preds = %49
  %53 = add nsw i32 %50, -1
  store i32 %53, ptr %9, align 4, !tbaa !4
  br label %lean_dec.exit27

54:                                               ; preds = %49
  %.not.i32 = icmp eq i32 %50, 0
  br i1 %.not.i32, label %lean_dec.exit27, label %55

55:                                               ; preds = %54
  tail call void @lean_dec_ref_cold(ptr noundef nonnull %9) #7
  br label %lean_dec.exit27

lean_dec.exit27:                                  ; preds = %55, %54, %52, %lean_dec.exit28
  %56 = ptrtoint ptr %8 to i64
  %57 = and i64 %56, 1
  %.not46 = icmp eq i64 %57, 0
  br i1 %.not46, label %58, label %lean_dec.exit26

58:                                               ; preds = %lean_dec.exit27
  %59 = load i32, ptr %8, align 4, !tbaa !4
  %60 = icmp sgt i32 %59, 1
  br i1 %60, label %61, label %63, !prof !11

61:                                               ; preds = %58
  %62 = add nsw i32 %59, -1
  store i32 %62, ptr %8, align 4, !tbaa !4
  br label %lean_dec.exit26

63:                                               ; preds = %58
  %.not.i34 = icmp eq i32 %59, 0
  br i1 %.not.i34, label %lean_dec.exit26, label %64

64:                                               ; preds = %63
  tail call void @lean_dec_ref_cold(ptr noundef nonnull %8) #7
  br label %lean_dec.exit26

lean_dec.exit26:                                  ; preds = %64, %63, %61, %lean_dec.exit27
  %65 = ptrtoint ptr %7 to i64
  %66 = and i64 %65, 1
  %.not47 = icmp eq i64 %66, 0
  br i1 %.not47, label %67, label %lean_dec.exit25

67:                                               ; preds = %lean_dec.exit26
  %68 = load i32, ptr %7, align 4, !tbaa !4
  %69 = icmp sgt i32 %68, 1
  br i1 %69, label %70, label %72, !prof !11

70:                                               ; preds = %67
  %71 = add nsw i32 %68, -1
  store i32 %71, ptr %7, align 4, !tbaa !4
  br label %lean_dec.exit25

72:                                               ; preds = %67
  %.not.i36 = icmp eq i32 %68, 0
  br i1 %.not.i36, label %lean_dec.exit25, label %73

73:                                               ; preds = %72
  tail call void @lean_dec_ref_cold(ptr noundef nonnull %7) #7
  br label %lean_dec.exit25

lean_dec.exit25:                                  ; preds = %73, %72, %70, %lean_dec.exit26
  %74 = ptrtoint ptr %6 to i64
  %75 = and i64 %74, 1
  %.not48 = icmp eq i64 %75, 0
  br i1 %.not48, label %76, label %lean_dec.exit24

76:                                               ; preds = %lean_dec.exit25
  %77 = load i32, ptr %6, align 4, !tbaa !4
  %78 = icmp sgt i32 %77, 1
  br i1 %78, label %79, label %81, !prof !11

79:                                               ; preds = %76
  %80 = add nsw i32 %77, -1
  store i32 %80, ptr %6, align 4, !tbaa !4
  br label %lean_dec.exit24

81:                                               ; preds = %76
  %.not.i38 = icmp eq i32 %77, 0
  br i1 %.not.i38, label %lean_dec.exit24, label %82

82:                                               ; preds = %81
  tail call void @lean_dec_ref_cold(ptr noundef nonnull %6) #7
  br label %lean_dec.exit24

lean_dec.exit24:                                  ; preds = %82, %81, %79, %lean_dec.exit25
  %83 = ptrtoint ptr %5 to i64
  %84 = and i64 %83, 1
  %.not49 = icmp eq i64 %84, 0
  br i1 %.not49, label %85, label %lean_dec.exit23

85:                                               ; preds = %lean_dec.exit24
  %86 = load i32, ptr %5, align 4, !tbaa !4
  %87 = icmp sgt i32 %86, 1
  br i1 %87, label %88, label %90, !prof !11

88:                                               ; preds = %85
  %89 = add nsw i32 %86, -1
  store i32 %89, ptr %5, align 4, !tbaa !4
  br label %lean_dec.exit23

90:                                               ; preds = %85
  %.not.i40 = icmp eq i32 %86, 0
  br i1 %.not.i40, label %lean_dec.exit23, label %91

91:                                               ; preds = %90
  tail call void @lean_dec_ref_cold(ptr noundef nonnull %5) #7
  br label %lean_dec.exit23

lean_dec.exit23:                                  ; preds = %91, %90, %88, %lean_dec.exit24
  %92 = ptrtoint ptr %4 to i64
  %93 = and i64 %92, 1
  %.not50 = icmp eq i64 %93, 0
  br i1 %.not50, label %94, label %lean_dec.exit

94:                                               ; preds = %lean_dec.exit23
  %95 = load i32, ptr %4, align 4, !tbaa !4
  %96 = icmp sgt i32 %95, 1
  br i1 %96, label %97, label %99, !prof !11

97:                                               ; preds = %94
  %98 = add nsw i32 %95, -1
  store i32 %98, ptr %4, align 4, !tbaa !4
  br label %lean_dec.exit

99:                                               ; preds = %94
  %.not.i42 = icmp eq i32 %95, 0
  br i1 %.not.i42, label %lean_dec.exit, label %100

100:                                              ; preds = %99
  tail call void @lean_dec_ref_cold(ptr noundef nonnull %4) #7
  br label %lean_dec.exit

lean_dec.exit:                                    ; preds = %100, %99, %97, %lean_dec.exit23
  ret ptr %28
}